; ModuleID = '30/2999.cpp'
source_filename = "30/2999.cpp"
target datalayout = "e-m:e-p270:32:32-p271:32:32-p272:64:64-i64:64-f80:128-n8:16:32:64-S128"
target triple = "x86_64-pc-linux-gnu"

%"class.std::ios_base::Init" = type { i8 }
%"class.std::basic_istream" = type { i32 (...)**, i64, %"class.std::basic_ios" }
%"class.std::basic_ios" = type { %"class.std::ios_base", %"class.std::basic_ostream"*, i8, i8, %"class.std::basic_streambuf"*, %"class.std::ctype"*, %"class.std::num_put"*, %"class.std::num_get"* }
%"class.std::ios_base" = type { i32 (...)**, i64, i64, i32, i32, i32, %"struct.std::ios_base::_Callback_list"*, %"struct.std::ios_base::_Words", [8 x %"struct.std::ios_base::_Words"], i32, %"struct.std::ios_base::_Words"*, %"class.std::locale" }
%"struct.std::ios_base::_Callback_list" = type { %"struct.std::ios_base::_Callback_list"*, void (i32, %"class.std::ios_base"*, i32)*, i32, i32 }
%"struct.std::ios_base::_Words" = type { i8*, i64 }
%"class.std::locale" = type { %"class.std::locale::_Impl"* }
%"class.std::locale::_Impl" = type { i32, %"class.std::locale::facet"**, i64, %"class.std::locale::facet"**, i8** }
%"class.std::locale::facet" = type <{ i32 (...)**, i32, [4 x i8] }>
%"class.std::basic_ostream" = type { i32 (...)**, %"class.std::basic_ios" }
%"class.std::basic_streambuf" = type { i32 (...)**, i8*, i8*, i8*, i8*, i8*, i8*, %"class.std::locale" }
%"class.std::ctype" = type <{ %"class.std::locale::facet.base", [4 x i8], %struct.__locale_struct*, i8, [7 x i8], i32*, i32*, i16*, i8, [256 x i8], [256 x i8], i8, [6 x i8] }>
%"class.std::locale::facet.base" = type <{ i32 (...)**, i32 }>
%struct.__locale_struct = type { [13 x %struct.__locale_data*], i16*, i32*, i32*, [13 x i8*] }
%struct.__locale_data = type opaque
%"class.std::num_put" = type { %"class.std::locale::facet.base", [4 x i8] }
%"class.std::num_get" = type { %"class.std::locale::facet.base", [4 x i8] }

@_ZStL8__ioinit = internal global %"class.std::ios_base::Init" zeroinitializer, align 1
@__dso_handle = external hidden global i8
@_ZSt3cin = external dso_local global %"class.std::basic_istream", align 8
@_ZSt4cout = external dso_local global %"class.std::basic_ostream", align 8
@llvm.global_ctors = appending global [1 x { i32, void ()*, i8* }] [{ i32, void ()*, i8* } { i32 65535, void ()* @_GLOBAL__sub_I_2999.cpp, i8* null }]

; Function Attrs: noinline uwtable
define internal void @__cxx_global_var_init() #0 section ".text.startup" {
  call void @_ZNSt8ios_base4InitC1Ev(%"class.std::ios_base::Init"* @_ZStL8__ioinit)
  %1 = call i32 @__cxa_atexit(void (i8*)* bitcast (void (%"class.std::ios_base::Init"*)* @_ZNSt8ios_base4InitD1Ev to void (i8*)*), i8* getelementptr inbounds (%"class.std::ios_base::Init", %"class.std::ios_base::Init"* @_ZStL8__ioinit, i32 0, i32 0), i8* @__dso_handle) #3
  ret void
}

declare dso_local void @_ZNSt8ios_base4InitC1Ev(%"class.std::ios_base::Init"*) unnamed_addr #1

; Function Attrs: nounwind
declare dso_local void @_ZNSt8ios_base4InitD1Ev(%"class.std::ios_base::Init"*) unnamed_addr #2

; Function Attrs: nounwind
declare dso_local i32 @__cxa_atexit(void (i8*)*, i8*, i8*) #3

; Function Attrs: noinline norecurse uwtable
define dso_local i32 @main() #4 {
  %1 = alloca i32, align 4
  %2 = alloca i32, align 4
  %3 = alloca i32, align 4
  %4 = alloca i64, align 8
  store i32 0, i32* %1, align 4
  %5 = call dereferenceable(280) %"class.std::basic_istream"* @_ZNSirsERi(%"class.std::basic_istream"* @_ZSt3cin, i32* dereferenceable(4) %3)
  store i64 0, i64* %4, align 8
  store i32 1, i32* %2, align 4
  br label %6

6:                                                ; preds = %30, %0
  %7 = load i32, i32* %2, align 4
  %8 = load i32, i32* %3, align 4
  %9 = icmp sle i32 %7, %8
  br i1 %9, label %10, label %33

10:                                               ; preds = %6
  %11 = load i32, i32* %2, align 4
  %12 = srem i32 %11, 7
  %13 = icmp eq i32 %12, 0
  br i1 %13, label %22, label %14

14:                                               ; preds = %10
  %15 = load i32, i32* %2, align 4
  %16 = srem i32 %15, 10
  %17 = icmp eq i32 %16, 7
  br i1 %17, label %22, label %18

18:                                               ; preds = %14
  %19 = load i32, i32* %2, align 4
  %20 = sdiv i32 %19, 10
  %21 = icmp eq i32 %20, 7
  br i1 %21, label %22, label %29

22:                                               ; preds = %18, %14, %10
  %23 = load i32, i32* %2, align 4
  %24 = load i32, i32* %2, align 4
  %25 = mul nsw i32 %23, %24
  %26 = sext i32 %25 to i64
  %27 = load i64, i64* %4, align 8
  %28 = add nsw i64 %27, %26
  store i64 %28, i64* %4, align 8
  br label %29

29:                                               ; preds = %22, %18
  br label %30

30:                                               ; preds = %29
  %31 = load i32, i32* %2, align 4
  %32 = add nsw i32 %31, 1
  store i32 %32, i32* %2, align 4
  br label %6

33:                                               ; preds = %6
  %34 = load i32, i32* %3, align 4
  %35 = load i32, i32* %3, align 4
  %36 = add nsw i32 %35, 1
  %37 = mul nsw i32 %34, %36
  %38 = load i32, i32* %3, align 4
  %39 = mul nsw i32 2, %38
  %40 = add nsw i32 %39, 1
  %41 = mul nsw i32 %37, %40
  %42 = sdiv i32 %41, 6
  %43 = sext i32 %42 to i64
  %44 = load i64, i64* %4, align 8
  %45 = sub nsw i64 %43, %44
  store i64 %45, i64* %4, align 8
  %46 = load i64, i64* %4, align 8
  %47 = call dereferenceable(272) %"class.std::basic_ostream"* @_ZNSolsEl(%"class.std::basic_ostream"* @_ZSt4cout, i64 %46)
  ret i32 0
}

declare dso_local dereferenceable(280) %"class.std::basic_istream"* @_ZNSirsERi(%"class.std::basic_istream"*, i32* dereferenceable(4)) #1

declare dso_local dereferenceable(272) %"class.std::basic_ostream"* @_ZNSolsEl(%"class.std::basic_ostream"*, i64) #1

; Function Attrs: noinline uwtable
define internal void @_GLOBAL__sub_I_2999.cpp() #0 section ".text.startup" {
  call void @__cxx_global_var_init()
  ret void
}


!llvm.module.flags = !{!0}
!llvm.ident = !{!1}

!0 = !{i32 1, !"wchar_size", i32 4}
!1 = !{!"clang version 10.0.0-4ubuntu1 "}
